; Function Attrs: nounwind uwtable
define internal void @rsdes(ptr noundef %0) #0 {
  %2 = getelementptr inbounds nuw i8, ptr %0, i64 264
  %3 = getelementptr inbounds nuw i8, ptr %0, i64 304
  %4 = load ptr, ptr %3, align 8, !tbaa !13
  %5 = getelementptr inbounds nuw i8, ptr %4, i64 48
  %6 = load ptr, ptr %5, align 8, !tbaa !40
  %7 = load ptr, ptr %6, align 8, !tbaa !18
  %.not6.i = icmp eq ptr %7, null
  br i1 %.not6.i, label %pmix_obj_run_destructors.exit, label %.lr.ph.i

.lr.ph.i:                                         ; preds = %1, %.lr.ph.i
  %8 = phi ptr [ %10, %.lr.ph.i ], [ %7, %1 ]
  %.07.i = phi ptr [ %9, %.lr.ph.i ], [ %6, %1 ]
  tail call void %8(ptr noundef nonnull %2) #14
  %9 = getelementptr inbounds nuw i8, ptr %.07.i, i64 8
  %10 = load ptr, ptr %9, align 8, !tbaa !18
  %.not.i = icmp eq ptr %10, null
  br i1 %.not.i, label %pmix_obj_run_destructors.exit, label %.lr.ph.i, !llvm.loop !41

pmix_obj_run_destructors.exit:                    ; preds = %.lr.ph.i, %1
  %11 = getelementptr inbounds nuw i8, ptr %0, i64 424
  %12 = tail call i32 @pthread_cond_destroy(ptr noundef nonnull %11) #14
  %13 = getelementptr inbounds nuw i8, ptr %0, i64 536
  %14 = load i64, ptr %13, align 8, !tbaa !42
  %.not = icmp eq i64 %14, 0
  br i1 %.not, label %18, label %15

15:                                               ; preds = %pmix_obj_run_destructors.exit
  %16 = getelementptr inbounds nuw i8, ptr %0, i64 528
  %17 = load ptr, ptr %16, align 8, !tbaa !43
  tail call void @free(ptr noundef %17) #14
  br label %18

18:                                               ; preds = %15, %pmix_obj_run_destructors.exit
  %19 = getelementptr inbounds nuw i8, ptr %0, i64 520
  %20 = load ptr, ptr %19, align 8, !tbaa !44
  %.not13 = icmp eq ptr %20, null
  br i1 %.not13, label %48, label %21

21:                                               ; preds = %18
  %22 = tail call i32 @pthread_mutex_lock(ptr noundef nonnull %20) #14
  %23 = icmp eq i32 %22, 35
  br i1 %23, label %24, label %pmix_obj_update.exit

24:                                               ; preds = %21
  %25 = tail call ptr @__errno_location() #15
  store i32 35, ptr %25, align 4, !tbaa !3
  tail call void @perror(ptr noundef nonnull @.str.5) #16
  tail call void @abort() #17
  unreachable

pmix_obj_update.exit:                             ; preds = %21
  %26 = getelementptr inbounds nuw i8, ptr %20, i64 48
  %27 = load i32, ptr %26, align 8, !tbaa !16
  %28 = add nsw i32 %27, -1
  store i32 %28, ptr %26, align 8, !tbaa !16
  %29 = tail call i32 @pthread_mutex_unlock(ptr noundef nonnull %20) #14
  %30 = icmp eq i32 %28, 0
  br i1 %30, label %31, label %48

31:                                               ; preds = %pmix_obj_update.exit
  %32 = getelementptr inbounds nuw i8, ptr %20, i64 40
  %33 = load ptr, ptr %32, align 8, !tbaa !13
  %34 = getelementptr inbounds nuw i8, ptr %33, i64 48
  %35 = load ptr, ptr %34, align 8, !tbaa !40
  %36 = load ptr, ptr %35, align 8, !tbaa !18
  %.not6.i15 = icmp eq ptr %36, null
  br i1 %.not6.i15, label %pmix_obj_run_destructors.exit19, label %.lr.ph.i16

.lr.ph.i16:                                       ; preds = %31, %.lr.ph.i16
  %37 = phi ptr [ %39, %.lr.ph.i16 ], [ %36, %31 ]
  %.07.i17 = phi ptr [ %38, %.lr.ph.i16 ], [ %35, %31 ]
  tail call void %37(ptr noundef nonnull %20) #14
  %38 = getelementptr inbounds nuw i8, ptr %.07.i17, i64 8
  %39 = load ptr, ptr %38, align 8, !tbaa !18
  %.not.i18 = icmp eq ptr %39, null
  br i1 %.not.i18, label %pmix_obj_run_destructors.exit19, label %.lr.ph.i16, !llvm.loop !41

pmix_obj_run_destructors.exit19:                  ; preds = %.lr.ph.i16, %31
  %40 = getelementptr inbounds nuw i8, ptr %20, i64 96
  %41 = load ptr, ptr %40, align 8, !tbaa !45
  %.not14 = icmp eq ptr %41, null
  br i1 %.not14, label %45, label %42

42:                                               ; preds = %pmix_obj_run_destructors.exit19
  %43 = getelementptr inbounds nuw i8, ptr %20, i64 56
  %44 = load ptr, ptr %19, align 8, !tbaa !44
  tail call void %41(ptr noundef nonnull %43, ptr noundef %44) #14
  br label %47

45:                                               ; preds = %pmix_obj_run_destructors.exit19
  %46 = load ptr, ptr %19, align 8, !tbaa !44
  tail call void @free(ptr noundef %46) #14
  br label %47

47:                                               ; preds = %45, %42
  store ptr null, ptr %19, align 8, !tbaa !44
  br label %48

48:                                               ; preds = %pmix_obj_update.exit, %47, %18
  ret void
}